; Function Attrs: mustprogress uwtable
define void @_ZN6marisa8grimoire2io6Mapper4seekEm(ptr noundef nonnull align 8 captures(none) dereferenceable(36) %0, i64 noundef %1) local_unnamed_addr #6 align 2 personality ptr @__gxx_personality_v0 {
  %3 = load ptr, ptr %0, align 8, !tbaa !3
  %.not = icmp eq ptr %3, null
  br i1 %.not, label %4, label %10

4:                                                ; preds = %2
  %5 = tail call ptr @__cxa_allocate_exception(i64 32) #15
  store ptr getelementptr inbounds nuw inrange(-16, 24) (i8, ptr @_ZTVN6marisa9ExceptionE, i64 16), ptr %5, align 8, !tbaa !13
  %6 = getelementptr inbounds nuw i8, ptr %5, i64 8
  store ptr @.str, ptr %6, align 8, !tbaa !15
  %7 = getelementptr inbounds nuw i8, ptr %5, i64 16
  store i32 71, ptr %7, align 8, !tbaa !20
  %8 = getelementptr inbounds nuw i8, ptr %5, i64 20
  store i32 1, ptr %8, align 4, !tbaa !21
  %9 = getelementptr inbounds nuw i8, ptr %5, i64 24
  store ptr @.str.3, ptr %9, align 8, !tbaa !22
  tail call void @__cxa_throw(ptr nonnull %5, ptr nonnull @_ZTIN6marisa9ExceptionE, ptr nonnull @_ZNSt9exceptionD2Ev) #17
  unreachable

10:                                               ; preds = %2
  %11 = getelementptr inbounds nuw i8, ptr %0, i64 16
  %12 = load i64, ptr %11, align 8, !tbaa !29
  %13 = icmp ugt i64 %1, %12
  br i1 %13, label %14, label %_ZN6marisa8grimoire2io6Mapper8map_dataEm.exit

14:                                               ; preds = %10
  %15 = tail call ptr @__cxa_allocate_exception(i64 32) #15
  store ptr getelementptr inbounds nuw inrange(-16, 24) (i8, ptr @_ZTVN6marisa9ExceptionE, i64 16), ptr %15, align 8, !tbaa !13
  %16 = getelementptr inbounds nuw i8, ptr %15, i64 8
  store ptr @.str, ptr %16, align 8, !tbaa !15
  %17 = getelementptr inbounds nuw i8, ptr %15, i64 16
  store i32 72, ptr %17, align 8, !tbaa !20
  %18 = getelementptr inbounds nuw i8, ptr %15, i64 20
  store i32 9, ptr %18, align 4, !tbaa !21
  %19 = getelementptr inbounds nuw i8, ptr %15, i64 24
  store ptr @.str.4, ptr %19, align 8, !tbaa !22
  tail call void @__cxa_throw(ptr nonnull %15, ptr nonnull @_ZTIN6marisa9ExceptionE, ptr nonnull @_ZNSt9exceptionD2Ev) #17
  unreachable

_ZN6marisa8grimoire2io6Mapper8map_dataEm.exit:    ; preds = %10
  %20 = getelementptr inbounds nuw i8, ptr %3, i64 %1
  store ptr %20, ptr %0, align 8, !tbaa !3
  %21 = sub nuw i64 %12, %1
  store i64 %21, ptr %11, align 8, !tbaa !29
  ret void
}